; Function Attrs: mustprogress uwtable
define hidden void @_ZN12mpfx_manager5floorER4mpfx(ptr noundef nonnull align 8 dereferenceable(85) %0, ptr noundef nonnull align 4 captures(none) dereferenceable(4) %1) local_unnamed_addr #3 align 2 {
  %3 = getelementptr inbounds nuw i8, ptr %0, i64 16
  %4 = load ptr, ptr %3, align 8, !tbaa !3
  %5 = load i32, ptr %1, align 4
  %6 = lshr i32 %5, 1
  %7 = getelementptr inbounds nuw i8, ptr %0, i64 8
  %8 = load i32, ptr %7, align 8, !tbaa !19
  %9 = mul i32 %6, %8
  %10 = zext i32 %9 to i64
  %11 = getelementptr inbounds nuw i32, ptr %4, i64 %10
  %12 = and i32 %5, 1
  %.not19 = icmp eq i32 %12, 0
  %13 = getelementptr inbounds nuw i8, ptr %0, i64 4
  %14 = load i32, ptr %13, align 4, !tbaa !18
  %.not27 = icmp eq i32 %14, 0
  br i1 %.not19, label %.preheader, label %.preheader20

.preheader20:                                     ; preds = %2
  br i1 %.not27, label %.loopexit, label %.lr.ph

.preheader:                                       ; preds = %2
  br i1 %.not27, label %.loopexit, label %.lr.ph25

._crit_edge:                                      ; preds = %19
  br i1 %.1, label %.loopexit, label %23

.lr.ph:                                           ; preds = %.preheader20, %19
  %15 = phi i32 [ %20, %19 ], [ %14, %.preheader20 ]
  %indvars.iv = phi i64 [ %indvars.iv.next, %19 ], [ 0, %.preheader20 ]
  %.01721 = phi i1 [ %.1, %19 ], [ true, %.preheader20 ]
  %16 = getelementptr inbounds nuw i32, ptr %11, i64 %indvars.iv
  %17 = load i32, ptr %16, align 4, !tbaa !22
  %.not = icmp eq i32 %17, 0
  br i1 %.not, label %19, label %18

18:                                               ; preds = %.lr.ph
  store i32 0, ptr %16, align 4, !tbaa !22
  %.pre = load i32, ptr %13, align 4, !tbaa !18
  br label %19

19:                                               ; preds = %.lr.ph, %18
  %20 = phi i32 [ %.pre, %18 ], [ %15, %.lr.ph ]
  %.1 = phi i1 [ false, %18 ], [ %.01721, %.lr.ph ]
  %indvars.iv.next = add nuw nsw i64 %indvars.iv, 1
  %21 = zext i32 %20 to i64
  %22 = icmp samesign ult i64 %indvars.iv.next, %21
  br i1 %22, label %.lr.ph, label %._crit_edge, !llvm.loop !73

23:                                               ; preds = %._crit_edge
  %24 = load i32, ptr %0, align 8, !tbaa !13
  %25 = zext i32 %20 to i64
  %26 = getelementptr inbounds nuw i32, ptr %11, i64 %25
  %27 = tail call noundef zeroext i1 @_Z3incjPj(i32 noundef %24, ptr noundef %26)
  br i1 %27, label %..loopexit_crit_edge, label %28

..loopexit_crit_edge:                             ; preds = %23
  %.pre32 = load i32, ptr %13, align 4, !tbaa !18
  br label %.loopexit

28:                                               ; preds = %23
  %29 = tail call ptr @__cxa_allocate_exception(i64 8) #24
  store ptr getelementptr inbounds nuw inrange(-16, 32) (i8, ptr @_ZTVN12mpfx_manager18overflow_exceptionE, i64 16), ptr %29, align 8, !tbaa !27
  tail call void @__cxa_throw(ptr nonnull %29, ptr nonnull @_ZTIN12mpfx_manager18overflow_exceptionE, ptr nonnull @_ZNSt9exceptionD2Ev) #26
  unreachable

.lr.ph25:                                         ; preds = %.preheader, %.lr.ph25
  %indvars.iv29 = phi i64 [ %indvars.iv.next30, %.lr.ph25 ], [ 0, %.preheader ]
  %30 = getelementptr inbounds nuw i32, ptr %11, i64 %indvars.iv29
  store i32 0, ptr %30, align 4, !tbaa !22
  %indvars.iv.next30 = add nuw nsw i64 %indvars.iv29, 1
  %31 = load i32, ptr %13, align 4, !tbaa !18
  %32 = zext i32 %31 to i64
  %33 = icmp samesign ult i64 %indvars.iv.next30, %32
  br i1 %33, label %.lr.ph25, label %.loopexit, !llvm.loop !74

.loopexit:                                        ; preds = %.lr.ph25, %.preheader20, %..loopexit_crit_edge, %.preheader, %._crit_edge
  %34 = phi i32 [ %.pre32, %..loopexit_crit_edge ], [ 0, %.preheader ], [ %20, %._crit_edge ], [ 0, %.preheader20 ], [ %31, %.lr.ph25 ]
  %35 = load i32, ptr %0, align 8, !tbaa !13
  %36 = zext i32 %34 to i64
  %37 = getelementptr inbounds nuw i32, ptr %11, i64 %36
  %38 = tail call noundef zeroext i1 @_Z7is_zerojPKj(i32 noundef %35, ptr noundef %37)
  br i1 %38, label %39, label %72

39:                                               ; preds = %.loopexit
  %40 = load i32, ptr %1, align 4
  %.not.i.i = icmp ult i32 %40, 2
  br i1 %.not.i.i, label %_ZN12mpfx_manager5resetER4mpfx.exit, label %41

41:                                               ; preds = %39
  %42 = lshr i32 %40, 1
  %43 = tail call noundef zeroext i1 @_ZN6memory16is_out_of_memoryEv()
  br i1 %43, label %_ZN6id_gen7recycleEj.exit.i.i, label %44

44:                                               ; preds = %41
  %45 = getelementptr inbounds nuw i8, ptr %0, i64 40
  %46 = load ptr, ptr %45, align 8, !tbaa !3
  %47 = icmp eq ptr %46, null
  br i1 %47, label %54, label %48

48:                                               ; preds = %44
  %49 = getelementptr inbounds i8, ptr %46, i64 -4
  %50 = load i32, ptr %49, align 4, !tbaa !22
  %51 = getelementptr inbounds i8, ptr %46, i64 -8
  %52 = load i32, ptr %51, align 4, !tbaa !22
  %53 = icmp eq i32 %50, %52
  br i1 %53, label %54, label %_ZN6vectorIjLb0EjE9push_backERKj.exit.i.i.i

54:                                               ; preds = %48, %44
  tail call void @_ZN6vectorIjLb0EjE13expand_vectorEv(ptr noundef nonnull align 8 dereferenceable(8) %45)
  %.pre.i.i.i.i = load ptr, ptr %45, align 8, !tbaa !3
  %.phi.trans.insert.i.i.i.i = getelementptr inbounds i8, ptr %.pre.i.i.i.i, i64 -4
  %.pre2.i.i.i.i = load i32, ptr %.phi.trans.insert.i.i.i.i, align 4, !tbaa !22
  br label %_ZN6vectorIjLb0EjE9push_backERKj.exit.i.i.i

_ZN6vectorIjLb0EjE9push_backERKj.exit.i.i.i:      ; preds = %54, %48
  %55 = phi i32 [ %.pre2.i.i.i.i, %54 ], [ %50, %48 ]
  %56 = phi ptr [ %.pre.i.i.i.i, %54 ], [ %46, %48 ]
  %57 = getelementptr inbounds i8, ptr %56, i64 -4
  %58 = zext i32 %55 to i64
  %59 = getelementptr inbounds nuw i32, ptr %56, i64 %58
  store i32 %42, ptr %59, align 4, !tbaa !22
  %60 = add i32 %55, 1
  store i32 %60, ptr %57, align 4, !tbaa !22
  br label %_ZN6id_gen7recycleEj.exit.i.i

_ZN6id_gen7recycleEj.exit.i.i:                    ; preds = %_ZN6vectorIjLb0EjE9push_backERKj.exit.i.i.i, %41
  %61 = load ptr, ptr %3, align 8, !tbaa !3
  %62 = load i32, ptr %1, align 4
  %63 = lshr i32 %62, 1
  %64 = load i32, ptr %7, align 8, !tbaa !19
  %65 = mul i32 %63, %64
  %66 = zext i32 %65 to i64
  %67 = getelementptr inbounds nuw i32, ptr %61, i64 %66
  %.not10.i.i = icmp eq i32 %64, 0
  br i1 %.not10.i.i, label %_ZN12mpfx_manager5resetER4mpfx.exit, label %.lr.ph.i.i

.lr.ph.i.i:                                       ; preds = %_ZN6id_gen7recycleEj.exit.i.i, %.lr.ph.i.i
  %indvars.iv.i.i = phi i64 [ %indvars.iv.next.i.i, %.lr.ph.i.i ], [ 0, %_ZN6id_gen7recycleEj.exit.i.i ]
  %68 = getelementptr inbounds nuw i32, ptr %67, i64 %indvars.iv.i.i
  store i32 0, ptr %68, align 4, !tbaa !22
  %indvars.iv.next.i.i = add nuw nsw i64 %indvars.iv.i.i, 1
  %69 = load i32, ptr %7, align 8, !tbaa !19
  %70 = zext i32 %69 to i64
  %71 = icmp samesign ult i64 %indvars.iv.next.i.i, %70
  br i1 %71, label %.lr.ph.i.i, label %_ZN12mpfx_manager5resetER4mpfx.exit, !llvm.loop !26

_ZN12mpfx_manager5resetER4mpfx.exit:              ; preds = %.lr.ph.i.i, %39, %_ZN6id_gen7recycleEj.exit.i.i
  store i32 0, ptr %1, align 4
  br label %72

72:                                               ; preds = %_ZN12mpfx_manager5resetER4mpfx.exit, %.loopexit
  ret void
}